target datalayout = "e-m:e-p270:32:32-p271:32:32-p272:64:64-i64:64-i128:128-f80:128-n8:16:32:64-S128"
target triple = "x86_64-pc-linux-gnu"

@interleave64.B = internal constant [5 x i64] [i64 6148914691236517205, i64 3689348814741910323, i64 1085102592571150095, i64 71777214294589695, i64 281470681808895], align 16
@interleave64.S = internal constant [5 x i32] [i32 1, i32 2, i32 4, i32 8, i32 16], align 16

; Function Attrs: inlinehint nounwind uwtable
define internal i64 @interleave64(i32 noundef %0, i32 noundef %1) #2 {
  %3 = alloca i32, align 4
  %4 = alloca i32, align 4
  %5 = alloca i64, align 8
  %6 = alloca i64, align 8
  store i32 %0, ptr %3, align 4, !tbaa !19
  store i32 %1, ptr %4, align 4, !tbaa !19
  call void @llvm.lifetime.start.p0(i64 8, ptr %5) #6
  %7 = load i32, ptr %3, align 4, !tbaa !19
  %8 = zext i32 %7 to i64
  store i64 %8, ptr %5, align 8, !tbaa !21
  call void @llvm.lifetime.start.p0(i64 8, ptr %6) #6
  %9 = load i32, ptr %4, align 4, !tbaa !19
  %10 = zext i32 %9 to i64
  store i64 %10, ptr %6, align 8, !tbaa !21
  %11 = load i64, ptr %5, align 8, !tbaa !21
  %12 = load i64, ptr %5, align 8, !tbaa !21
  %13 = load i32, ptr getelementptr inbounds ([5 x i32], ptr @interleave64.S, i64 0, i64 4), align 16, !tbaa !19
  %14 = zext i32 %13 to i64
  %15 = shl i64 %12, %14
  %16 = or i64 %11, %15
  %17 = load i64, ptr getelementptr inbounds ([5 x i64], ptr @interleave64.B, i64 0, i64 4), align 16, !tbaa !21
  %18 = and i64 %16, %17
  store i64 %18, ptr %5, align 8, !tbaa !21
  %19 = load i64, ptr %6, align 8, !tbaa !21
  %20 = load i64, ptr %6, align 8, !tbaa !21
  %21 = load i32, ptr getelementptr inbounds ([5 x i32], ptr @interleave64.S, i64 0, i64 4), align 16, !tbaa !19
  %22 = zext i32 %21 to i64
  %23 = shl i64 %20, %22
  %24 = or i64 %19, %23
  %25 = load i64, ptr getelementptr inbounds ([5 x i64], ptr @interleave64.B, i64 0, i64 4), align 16, !tbaa !21
  %26 = and i64 %24, %25
  store i64 %26, ptr %6, align 8, !tbaa !21
  %27 = load i64, ptr %5, align 8, !tbaa !21
  %28 = load i64, ptr %5, align 8, !tbaa !21
  %29 = load i32, ptr getelementptr inbounds ([5 x i32], ptr @interleave64.S, i64 0, i64 3), align 4, !tbaa !19
  %30 = zext i32 %29 to i64
  %31 = shl i64 %28, %30
  %32 = or i64 %27, %31
  %33 = load i64, ptr getelementptr inbounds ([5 x i64], ptr @interleave64.B, i64 0, i64 3), align 8, !tbaa !21
  %34 = and i64 %32, %33
  store i64 %34, ptr %5, align 8, !tbaa !21
  %35 = load i64, ptr %6, align 8, !tbaa !21
  %36 = load i64, ptr %6, align 8, !tbaa !21
  %37 = load i32, ptr getelementptr inbounds ([5 x i32], ptr @interleave64.S, i64 0, i64 3), align 4, !tbaa !19
  %38 = zext i32 %37 to i64
  %39 = shl i64 %36, %38
  %40 = or i64 %35, %39
  %41 = load i64, ptr getelementptr inbounds ([5 x i64], ptr @interleave64.B, i64 0, i64 3), align 8, !tbaa !21
  %42 = and i64 %40, %41
  store i64 %42, ptr %6, align 8, !tbaa !21
  %43 = load i64, ptr %5, align 8, !tbaa !21
  %44 = load i64, ptr %5, align 8, !tbaa !21
  %45 = load i32, ptr getelementptr inbounds ([5 x i32], ptr @interleave64.S, i64 0, i64 2), align 8, !tbaa !19
  %46 = zext i32 %45 to i64
  %47 = shl i64 %44, %46
  %48 = or i64 %43, %47
  %49 = load i64, ptr getelementptr inbounds ([5 x i64], ptr @interleave64.B, i64 0, i64 2), align 16, !tbaa !21
  %50 = and i64 %48, %49
  store i64 %50, ptr %5, align 8, !tbaa !21
  %51 = load i64, ptr %6, align 8, !tbaa !21
  %52 = load i64, ptr %6, align 8, !tbaa !21
  %53 = load i32, ptr getelementptr inbounds ([5 x i32], ptr @interleave64.S, i64 0, i64 2), align 8, !tbaa !19
  %54 = zext i32 %53 to i64
  %55 = shl i64 %52, %54
  %56 = or i64 %51, %55
  %57 = load i64, ptr getelementptr inbounds ([5 x i64], ptr @interleave64.B, i64 0, i64 2), align 16, !tbaa !21
  %58 = and i64 %56, %57
  store i64 %58, ptr %6, align 8, !tbaa !21
  %59 = load i64, ptr %5, align 8, !tbaa !21
  %60 = load i64, ptr %5, align 8, !tbaa !21
  %61 = load i32, ptr getelementptr inbounds ([5 x i32], ptr @interleave64.S, i64 0, i64 1), align 4, !tbaa !19
  %62 = zext i32 %61 to i64
  %63 = shl i64 %60, %62
  %64 = or i64 %59, %63
  %65 = load i64, ptr getelementptr inbounds ([5 x i64], ptr @interleave64.B, i64 0, i64 1), align 8, !tbaa !21
  %66 = and i64 %64, %65
  store i64 %66, ptr %5, align 8, !tbaa !21
  %67 = load i64, ptr %6, align 8, !tbaa !21
  %68 = load i64, ptr %6, align 8, !tbaa !21
  %69 = load i32, ptr getelementptr inbounds ([5 x i32], ptr @interleave64.S, i64 0, i64 1), align 4, !tbaa !19
  %70 = zext i32 %69 to i64
  %71 = shl i64 %68, %70
  %72 = or i64 %67, %71
  %73 = load i64, ptr getelementptr inbounds ([5 x i64], ptr @interleave64.B, i64 0, i64 1), align 8, !tbaa !21
  %74 = and i64 %72, %73
  store i64 %74, ptr %6, align 8, !tbaa !21
  %75 = load i64, ptr %5, align 8, !tbaa !21
  %76 = load i64, ptr %5, align 8, !tbaa !21
  %77 = load i32, ptr @interleave64.S, align 16, !tbaa !19
  %78 = zext i32 %77 to i64
  %79 = shl i64 %76, %78
  %80 = or i64 %75, %79
  %81 = load i64, ptr @interleave64.B, align 16, !tbaa !21
  %82 = and i64 %80, %81
  store i64 %82, ptr %5, align 8, !tbaa !21
  %83 = load i64, ptr %6, align 8, !tbaa !21
  %84 = load i64, ptr %6, align 8, !tbaa !21
  %85 = load i32, ptr @interleave64.S, align 16, !tbaa !19
  %86 = zext i32 %85 to i64
  %87 = shl i64 %84, %86
  %88 = or i64 %83, %87
  %89 = load i64, ptr @interleave64.B, align 16, !tbaa !21
  %90 = and i64 %88, %89
  store i64 %90, ptr %6, align 8, !tbaa !21
  %91 = load i64, ptr %5, align 8, !tbaa !21
  %92 = load i64, ptr %6, align 8, !tbaa !21
  %93 = shl i64 %92, 1
  %94 = or i64 %91, %93
  call void @llvm.lifetime.end.p0(i64 8, ptr %6) #6
  call void @llvm.lifetime.end.p0(i64 8, ptr %5) #6
  ret i64 %94
}