; Function Attrs: inlinehint mustprogress nofree norecurse nosync nounwind willreturn memory(none) uwtable
define internal fastcc i64 @interleave64(i32 noundef %0, i32 noundef %1) unnamed_addr #2 {
  %3 = zext i32 %0 to i64
  %4 = zext i32 %1 to i64
  %5 = shl nuw nsw i64 %3, 16
  %6 = or i64 %5, %3
  %7 = and i64 %6, 281470681808895
  %8 = shl nuw nsw i64 %4, 16
  %9 = or i64 %8, %4
  %10 = and i64 %9, 281470681808895
  %11 = shl nuw nsw i64 %7, 8
  %12 = or i64 %11, %7
  %13 = and i64 %12, 71777214294589695
  %14 = shl nuw nsw i64 %10, 8
  %15 = or i64 %14, %10
  %16 = and i64 %15, 71777214294589695
  %17 = shl nuw nsw i64 %13, 4
  %18 = or i64 %17, %13
  %19 = and i64 %18, 1085102592571150095
  %20 = shl nuw nsw i64 %16, 4
  %21 = or i64 %20, %16
  %22 = and i64 %21, 1085102592571150095
  %23 = shl nuw nsw i64 %19, 2
  %24 = or i64 %23, %19
  %25 = and i64 %24, 3689348814741910323
  %26 = shl nuw nsw i64 %22, 2
  %27 = or i64 %26, %22
  %28 = and i64 %27, 3689348814741910323
  %29 = shl nuw nsw i64 %25, 1
  %30 = or i64 %29, %25
  %31 = and i64 %30, 6148914691236517205
  %32 = shl nuw i64 %28, 2
  %33 = shl nuw nsw i64 %28, 1
  %34 = or i64 %32, %33
  %35 = and i64 %34, -6148914691236517206
  %36 = or disjoint i64 %35, %31
  ret i64 %36
}